target datalayout = "e-m:e-p270:32:32-p271:32:32-p272:64:64-i64:64-i128:128-f80:128-n8:16:32:64-S128"
target triple = "x86_64-unknown-linux-gnu"

%struct.anon = type { i8, [3 x i8] }
%struct.anon.0 = type { i32 }

; Function Attrs: mustprogress nounwind uwtable
define internal noundef i32 @_ZN12_GLOBAL__N_110signExtendILm25EiEENSt9enable_ifIXaaaasr3std11is_integralIT0_EE5valuesr3std9is_signedIS2_EE5valueleT_sr4bitsIS2_EE5widthES2_E4typeES2_(i32 noundef %allBits) #0 {
entry:
  %allBits.addr = alloca i32, align 4
  %s = alloca %struct.anon.0, align 4
  store i32 %allBits, ptr %allBits.addr, align 4
  %0 = load i32, ptr %allBits.addr, align 4
  %bf.load = load i32, ptr %s, align 4
  %bf.value = and i32 %0, 33554431
  %bf.clear = and i32 %bf.load, -33554432
  %bf.set = or i32 %bf.clear, %bf.value
  store i32 %bf.set, ptr %s, align 4
  %bf.load1 = load i32, ptr %s, align 4
  %bf.shl = shl i32 %bf.load1, 7
  %bf.ashr = ashr i32 %bf.shl, 7
  ret i32 %bf.ashr
}

; Function Attrs: mustprogress nounwind uwtable
define internal noundef i32 @_ZN12_GLOBAL__N_110signExtendILm7EiEENSt9enable_ifIXaaaasr3std11is_integralIT0_EE5valuesr3std9is_signedIS2_EE5valueleT_sr4bitsIS2_EE5widthES2_E4typeES2_(i32 noundef %allBits) #0 {
entry:
  %allBits.addr = alloca i32, align 4
  %s = alloca %struct.anon, align 4
  store i32 %allBits, ptr %allBits.addr, align 4
  %0 = load i32, ptr %allBits.addr, align 4
  %1 = trunc i32 %0 to i8
  %bf.load = load i8, ptr %s, align 4
  %bf.value = and i8 %1, 127
  %bf.clear = and i8 %bf.load, -128
  %bf.set = or i8 %bf.clear, %bf.value
  store i8 %bf.set, ptr %s, align 4
  %bf.load1 = load i8, ptr %s, align 4
  %bf.shl = shl i8 %bf.load1, 1
  %bf.ashr = ashr i8 %bf.shl, 1
  %bf.cast = sext i8 %bf.ashr to i32
  ret i32 %bf.cast
}

; Function Attrs: mustprogress nounwind uwtable
define hidden void @_ZN6hermes13encodeSLEB128EiRN4llvh11raw_ostreamEm(i32 noundef %input, ptr noundef nonnull align 8 dereferenceable(36) %os, i64 noundef %minBytes) #0 {
entry:
  %input.addr = alloca i32, align 4
  %os.addr = alloca ptr, align 8
  %minBytes.addr = alloca i64, align 8
  %CAP = alloca i64, align 8
  %buf = alloca [5 x i8], align 1
  %i = alloca i64, align 8
  %byte = alloca i8, align 1
  store i32 %input, ptr %input.addr, align 4
  store ptr %os, ptr %os.addr, align 8
  store i64 %minBytes, ptr %minBytes.addr, align 8
  store i64 5, ptr %CAP, align 8
  call void @llvm.memset.p0.i64(ptr align 1 %buf, i8 0, i64 5, i1 false)
  store i64 0, ptr %i, align 8
  br label %for.cond

for.cond:                                         ; preds = %for.inc, %entry
  %0 = load i64, ptr %i, align 8
  %cmp = icmp ult i64 %0, 5
  br i1 %cmp, label %for.body, label %for.end

for.body:                                         ; preds = %for.cond
  %1 = load i32, ptr %input.addr, align 4
  %call = call noundef i32 @_ZN12_GLOBAL__N_110signExtendILm7EiEENSt9enable_ifIXaaaasr3std11is_integralIT0_EE5valuesr3std9is_signedIS2_EE5valueleT_sr4bitsIS2_EE5widthES2_E4typeES2_(i32 noundef %1)
  %conv = trunc i32 %call to i8
  store i8 %conv, ptr %byte, align 1
  %2 = load i8, ptr %byte, align 1
  %conv1 = sext i8 %2 to i32
  %3 = load i32, ptr %input.addr, align 4
  %cmp2 = icmp ne i32 %conv1, %3
  br i1 %cmp2, label %if.then, label %lor.lhs.false

lor.lhs.false:                                    ; preds = %for.body
  %4 = load i64, ptr %i, align 8
  %add = add i64 %4, 1
  %5 = load i64, ptr %minBytes.addr, align 8
  %cmp3 = icmp ult i64 %add, %5
  br i1 %cmp3, label %if.then, label %if.else

if.then:                                          ; preds = %lor.lhs.false, %for.body
  %6 = load i8, ptr %byte, align 1
  %conv4 = sext i8 %6 to i32
  %or = or i32 %conv4, 128
  %conv5 = trunc i32 %or to i8
  %7 = load i64, ptr %i, align 8
  %arrayidx = getelementptr inbounds [5 x i8], ptr %buf, i64 0, i64 %7
  store i8 %conv5, ptr %arrayidx, align 1
  %8 = load i32, ptr %input.addr, align 4
  %shr = ashr i32 %8, 7
  %call6 = call noundef i32 @_ZN12_GLOBAL__N_110signExtendILm25EiEENSt9enable_ifIXaaaasr3std11is_integralIT0_EE5valuesr3std9is_signedIS2_EE5valueleT_sr4bitsIS2_EE5widthES2_E4typeES2_(i32 noundef %shr)
  store i32 %call6, ptr %input.addr, align 4
  br label %if.end

if.else:                                          ; preds = %lor.lhs.false
  %9 = load i8, ptr %byte, align 1
  %conv7 = sext i8 %9 to i32
  %and = and i32 %conv7, -129
  %conv8 = trunc i32 %and to i8
  %10 = load i64, ptr %i, align 8
  %arrayidx9 = getelementptr inbounds [5 x i8], ptr %buf, i64 0, i64 %10
  store i8 %conv8, ptr %arrayidx9, align 1
  %11 = load ptr, ptr %os.addr, align 8
  %arraydecay = getelementptr inbounds [5 x i8], ptr %buf, i64 0, i64 0
  %12 = load i64, ptr %i, align 8
  %add10 = add i64 %12, 1
  %call11 = call noundef nonnull align 8 dereferenceable(36) ptr @_ZN4llvh11raw_ostream5writeEPKcm(ptr noundef nonnull align 8 dereferenceable(36) %11, ptr noundef %arraydecay, i64 noundef %add10)
  ret void

if.end:                                           ; preds = %if.then
  br label %for.inc

for.inc:                                          ; preds = %if.end
  %13 = load i64, ptr %i, align 8
  %inc = add i64 %13, 1
  store i64 %inc, ptr %i, align 8
  br label %for.cond, !llvm.loop !9

for.end:                                          ; preds = %for.cond
  unreachable
}