; Function Attrs: mustprogress nounwind uwtable
define hidden void @_ZN6hermes13encodeSLEB128EiRN4llvh11raw_ostreamEm(i32 noundef %input, ptr noundef nonnull align 8 dereferenceable(36) %os, i64 noundef %minBytes) local_unnamed_addr #0 {
entry:
  %buf = alloca [5 x i8], align 1
  call void @llvm.memset.p0.i64(ptr noundef nonnull align 1 dereferenceable(5) %buf, i8 0, i64 5, i1 false)
  %0 = add i32 %input, -64
  %cmp2.not10 = icmp ult i32 %0, -128
  %cmp311 = icmp ugt i64 %minBytes, 1
  %or.cond12 = or i1 %cmp2.not10, %cmp311
  br i1 %or.cond12, label %if.then, label %if.else

if.then:                                          ; preds = %entry, %if.then
  %add15 = phi i64 [ %add, %if.then ], [ 1, %entry ]
  %input.addr.014 = phi i32 [ %bf.ashr.i, %if.then ], [ %input, %entry ]
  %i.013 = phi i64 [ %add15, %if.then ], [ 0, %entry ]
  %1 = trunc i32 %input.addr.014 to i8
  %conv5 = or i8 %1, -128
  %arrayidx = getelementptr inbounds [5 x i8], ptr %buf, i64 0, i64 %i.013
  store i8 %conv5, ptr %arrayidx, align 1
  %bf.ashr.i = ashr i32 %input.addr.014, 7
  %cmp = icmp ult i64 %add15, 5
  tail call void @llvm.assume(i1 %cmp)
  %2 = add nsw i32 %bf.ashr.i, -64
  %cmp2.not = icmp ult i32 %2, -128
  %add = add nuw nsw i64 %add15, 1
  %cmp3 = icmp ult i64 %add, %minBytes
  %or.cond = select i1 %cmp2.not, i1 true, i1 %cmp3
  br i1 %or.cond, label %if.then, label %if.else, !llvm.loop !9

if.else:                                          ; preds = %if.then, %entry
  %i.0.lcssa = phi i64 [ 0, %entry ], [ %add15, %if.then ]
  %input.addr.0.lcssa = phi i32 [ %input, %entry ], [ %bf.ashr.i, %if.then ]
  %add.lcssa = phi i64 [ 1, %entry ], [ %add, %if.then ]
  %3 = trunc i32 %input.addr.0.lcssa to i8
  %conv8 = and i8 %3, 127
  %arrayidx9 = getelementptr inbounds [5 x i8], ptr %buf, i64 0, i64 %i.0.lcssa
  store i8 %conv8, ptr %arrayidx9, align 1
  %call11 = call noundef nonnull align 8 dereferenceable(36) ptr @_ZN4llvh11raw_ostream5writeEPKcm(ptr noundef nonnull align 8 dereferenceable(36) %os, ptr noundef nonnull %buf, i64 noundef %add.lcssa) #12
  ret void
}